target datalayout = "e-m:e-p270:32:32-p271:32:32-p272:64:64-i64:64-i128:128-f80:128-n8:16:32:64-S128"
target triple = "x86_64-pc-linux-gnu"

%struct.BM3DContext = type { ptr, float, i32, i32, i32, i32, i32, float, float, i32, i32, i32, i32, i32, i32, [4 x i32], [4 x i32], i32, i32, [32 x %struct.SliceContext], %struct.FFFrameSync, i32, ptr, ptr, ptr, ptr }
%struct.SliceContext = type { ptr, ptr, ptr, ptr, ptr, ptr, ptr, ptr, ptr, ptr, ptr, ptr, ptr, ptr, ptr, ptr, ptr, ptr, ptr, [256 x %struct.PosPairCode], i32, ptr }
%struct.PosPairCode = type { double, i32, i32 }
%struct.FFFrameSync = type { ptr, ptr, i32, %struct.AVRational, i64, ptr, ptr, i32, i32, i8, i8, ptr, i32, i32, i32, i32 }
%struct.AVRational = type { i32, i32 }

; Function Attrs: alwaysinline nounwind willreturn memory(none) uwtable
define internal i32 @av_clip_uintp2_c(i32 noundef %0, i32 noundef %1) #11 {
  %3 = alloca i32, align 4
  %4 = alloca i32, align 4
  %5 = alloca i32, align 4
  store i32 %0, ptr %4, align 4, !tbaa !43
  store i32 %1, ptr %5, align 4, !tbaa !43
  %6 = load i32, ptr %4, align 4, !tbaa !43
  %7 = load i32, ptr %5, align 4, !tbaa !43
  %8 = shl i32 1, %7
  %9 = sub i32 %8, 1
  %10 = xor i32 %9, -1
  %11 = and i32 %6, %10
  %12 = icmp ne i32 %11, 0
  br i1 %12, label %13, label %21

13:                                               ; preds = %2
  %14 = load i32, ptr %4, align 4, !tbaa !43
  %15 = xor i32 %14, -1
  %16 = ashr i32 %15, 31
  %17 = load i32, ptr %5, align 4, !tbaa !43
  %18 = shl i32 1, %17
  %19 = sub i32 %18, 1
  %20 = and i32 %16, %19
  store i32 %20, ptr %3, align 4
  br label %23

21:                                               ; preds = %2
  %22 = load i32, ptr %4, align 4, !tbaa !43
  store i32 %22, ptr %3, align 4
  br label %23

23:                                               ; preds = %21, %13
  %24 = load i32, ptr %3, align 4
  ret i32 %24
}

; Function Attrs: nounwind uwtable
define internal void @do_output16(ptr noundef %0, ptr noundef %1, i32 noundef %2, i32 noundef %3, i32 noundef %4) #1 {
  %6 = alloca ptr, align 8
  %7 = alloca ptr, align 8
  %8 = alloca i32, align 4
  %9 = alloca i32, align 4
  %10 = alloca i32, align 4
  %11 = alloca i32, align 4
  %12 = alloca i32, align 4
  %13 = alloca i32, align 4
  %14 = alloca i32, align 4
  %15 = alloca i32, align 4
  %16 = alloca i32, align 4
  %17 = alloca ptr, align 8
  %18 = alloca float, align 4
  %19 = alloca float, align 4
  %20 = alloca i32, align 4
  %21 = alloca ptr, align 8
  %22 = alloca float, align 4
  %23 = alloca float, align 4
  store ptr %0, ptr %6, align 8, !tbaa !22
  store ptr %1, ptr %7, align 8, !tbaa !91
  store i32 %2, ptr %8, align 4, !tbaa !43
  store i32 %3, ptr %9, align 4, !tbaa !43
  store i32 %4, ptr %10, align 4, !tbaa !43
  call void @llvm.lifetime.start.p0(i64 4, ptr %11) #12
  %24 = load ptr, ptr %6, align 8, !tbaa !22
  %25 = getelementptr inbounds nuw %struct.BM3DContext, ptr %24, i32 0, i32 16
  %26 = load i32, ptr %9, align 4, !tbaa !43
  %27 = sext i32 %26 to i64
  %28 = getelementptr inbounds [4 x i32], ptr %25, i64 0, i64 %27
  %29 = load i32, ptr %28, align 4, !tbaa !43
  store i32 %29, ptr %11, align 4, !tbaa !43
  call void @llvm.lifetime.start.p0(i64 4, ptr %12) #12
  %30 = load ptr, ptr %6, align 8, !tbaa !22
  %31 = getelementptr inbounds nuw %struct.BM3DContext, ptr %30, i32 0, i32 15
  %32 = load i32, ptr %9, align 4, !tbaa !43
  %33 = sext i32 %32 to i64
  %34 = getelementptr inbounds [4 x i32], ptr %31, i64 0, i64 %33
  %35 = load i32, ptr %34, align 4, !tbaa !43
  store i32 %35, ptr %12, align 4, !tbaa !43
  call void @llvm.lifetime.start.p0(i64 4, ptr %13) #12
  %36 = load ptr, ptr %6, align 8, !tbaa !22
  %37 = getelementptr inbounds nuw %struct.BM3DContext, ptr %36, i32 0, i32 12
  %38 = load i32, ptr %37, align 4, !tbaa !92
  store i32 %38, ptr %13, align 4, !tbaa !43
  call void @llvm.lifetime.start.p0(i64 4, ptr %14) #12
  store i32 0, ptr %14, align 4, !tbaa !43
  br label %39

39:                                               ; preds = %117, %5
  %40 = load i32, ptr %14, align 4, !tbaa !43
  %41 = load i32, ptr %11, align 4, !tbaa !43
  %42 = icmp slt i32 %40, %41
  br i1 %42, label %44, label %43

43:                                               ; preds = %39
  store i32 2, ptr %15, align 4
  call void @llvm.lifetime.end.p0(i64 4, ptr %14) #12
  br label %120

44:                                               ; preds = %39
  call void @llvm.lifetime.start.p0(i64 4, ptr %16) #12
  store i32 0, ptr %16, align 4, !tbaa !43
  br label %45

45:                                               ; preds = %113, %44
  %46 = load i32, ptr %16, align 4, !tbaa !43
  %47 = load i32, ptr %12, align 4, !tbaa !43
  %48 = icmp slt i32 %46, %47
  br i1 %48, label %50, label %49

49:                                               ; preds = %45
  store i32 5, ptr %15, align 4
  call void @llvm.lifetime.end.p0(i64 4, ptr %16) #12
  br label %116

50:                                               ; preds = %45
  call void @llvm.lifetime.start.p0(i64 8, ptr %17) #12
  %51 = load ptr, ptr %7, align 8, !tbaa !91
  %52 = load i32, ptr %14, align 4, !tbaa !43
  %53 = load i32, ptr %8, align 4, !tbaa !43
  %54 = mul nsw i32 %52, %53
  %55 = sdiv i32 %54, 2
  %56 = sext i32 %55 to i64
  %57 = getelementptr inbounds i16, ptr %51, i64 %56
  store ptr %57, ptr %17, align 8, !tbaa !213
  call void @llvm.lifetime.start.p0(i64 4, ptr %18) #12
  store float 0.000000e+00, ptr %18, align 4, !tbaa !126
  call void @llvm.lifetime.start.p0(i64 4, ptr %19) #12
  store float 0.000000e+00, ptr %19, align 4, !tbaa !126
  call void @llvm.lifetime.start.p0(i64 4, ptr %20) #12
  store i32 0, ptr %20, align 4, !tbaa !43
  br label %58

58:                                               ; preds = %97, %50
  %59 = load i32, ptr %20, align 4, !tbaa !43
  %60 = load i32, ptr %10, align 4, !tbaa !43
  %61 = icmp slt i32 %59, %60
  br i1 %61, label %63, label %62

62:                                               ; preds = %58
  store i32 8, ptr %15, align 4
  call void @llvm.lifetime.end.p0(i64 4, ptr %20) #12
  br label %100

63:                                               ; preds = %58
  call void @llvm.lifetime.start.p0(i64 8, ptr %21) #12
  %64 = load ptr, ptr %6, align 8, !tbaa !22
  %65 = getelementptr inbounds nuw %struct.BM3DContext, ptr %64, i32 0, i32 19
  %66 = load i32, ptr %20, align 4, !tbaa !43
  %67 = sext i32 %66 to i64
  %68 = getelementptr inbounds [32 x %struct.SliceContext], ptr %65, i64 0, i64 %67
  store ptr %68, ptr %21, align 8, !tbaa !45
  call void @llvm.lifetime.start.p0(i64 4, ptr %22) #12
  %69 = load ptr, ptr %21, align 8, !tbaa !45
  %70 = getelementptr inbounds nuw %struct.SliceContext, ptr %69, i32 0, i32 17
  %71 = load ptr, ptr %70, align 8, !tbaa !104
  %72 = load i32, ptr %14, align 4, !tbaa !43
  %73 = load i32, ptr %12, align 4, !tbaa !43
  %74 = mul nsw i32 %72, %73
  %75 = load i32, ptr %16, align 4, !tbaa !43
  %76 = add nsw i32 %74, %75
  %77 = sext i32 %76 to i64
  %78 = getelementptr inbounds float, ptr %71, i64 %77
  %79 = load float, ptr %78, align 4, !tbaa !126
  store float %79, ptr %22, align 4, !tbaa !126
  call void @llvm.lifetime.start.p0(i64 4, ptr %23) #12
  %80 = load ptr, ptr %21, align 8, !tbaa !45
  %81 = getelementptr inbounds nuw %struct.SliceContext, ptr %80, i32 0, i32 18
  %82 = load ptr, ptr %81, align 8, !tbaa !109
  %83 = load i32, ptr %14, align 4, !tbaa !43
  %84 = load i32, ptr %12, align 4, !tbaa !43
  %85 = mul nsw i32 %83, %84
  %86 = load i32, ptr %16, align 4, !tbaa !43
  %87 = add nsw i32 %85, %86
  %88 = sext i32 %87 to i64
  %89 = getelementptr inbounds float, ptr %82, i64 %88
  %90 = load float, ptr %89, align 4, !tbaa !126
  store float %90, ptr %23, align 4, !tbaa !126
  %91 = load float, ptr %22, align 4, !tbaa !126
  %92 = load float, ptr %19, align 4, !tbaa !126
  %93 = fadd nsz float %92, %91
  store float %93, ptr %19, align 4, !tbaa !126
  %94 = load float, ptr %23, align 4, !tbaa !126
  %95 = load float, ptr %18, align 4, !tbaa !126
  %96 = fadd nsz float %95, %94
  store float %96, ptr %18, align 4, !tbaa !126
  call void @llvm.lifetime.end.p0(i64 4, ptr %23) #12
  call void @llvm.lifetime.end.p0(i64 4, ptr %22) #12
  call void @llvm.lifetime.end.p0(i64 8, ptr %21) #12
  br label %97

97:                                               ; preds = %63
  %98 = load i32, ptr %20, align 4, !tbaa !43
  %99 = add nsw i32 %98, 1
  store i32 %99, ptr %20, align 4, !tbaa !43
  br label %58, !llvm.loop !215

100:                                              ; preds = %62
  %101 = load float, ptr %19, align 4, !tbaa !126
  %102 = load float, ptr %18, align 4, !tbaa !126
  %103 = fdiv nsz float %101, %102
  %104 = call i64 @llvm.lrint.i64.f32(float %103)
  %105 = trunc i64 %104 to i32
  %106 = load i32, ptr %13, align 4, !tbaa !43
  %107 = call i32 @av_clip_uintp2_c(i32 noundef %105, i32 noundef %106) #13
  %108 = trunc i32 %107 to i16
  %109 = load ptr, ptr %17, align 8, !tbaa !213
  %110 = load i32, ptr %16, align 4, !tbaa !43
  %111 = sext i32 %110 to i64
  %112 = getelementptr inbounds i16, ptr %109, i64 %111
  store i16 %108, ptr %112, align 2, !tbaa !216
  call void @llvm.lifetime.end.p0(i64 4, ptr %19) #12
  call void @llvm.lifetime.end.p0(i64 4, ptr %18) #12
  call void @llvm.lifetime.end.p0(i64 8, ptr %17) #12
  br label %113

113:                                              ; preds = %100
  %114 = load i32, ptr %16, align 4, !tbaa !43
  %115 = add nsw i32 %114, 1
  store i32 %115, ptr %16, align 4, !tbaa !43
  br label %45, !llvm.loop !218

116:                                              ; preds = %49
  br label %117

117:                                              ; preds = %116
  %118 = load i32, ptr %14, align 4, !tbaa !43
  %119 = add nsw i32 %118, 1
  store i32 %119, ptr %14, align 4, !tbaa !43
  br label %39, !llvm.loop !219

120:                                              ; preds = %43
  call void @llvm.lifetime.end.p0(i64 4, ptr %13) #12
  call void @llvm.lifetime.end.p0(i64 4, ptr %12) #12
  call void @llvm.lifetime.end.p0(i64 4, ptr %11) #12
  ret void
}