; Function Attrs: nofree norecurse nosync nounwind memory(read, argmem: readwrite, inaccessiblemem: none) uwtable
define internal void @do_output16(ptr noundef readonly captures(none) %0, ptr noundef writeonly captures(none) %1, i32 noundef %2, i32 noundef %3, i32 noundef %4) #11 {
  %6 = getelementptr inbounds nuw i8, ptr %0, i64 80
  %7 = sext i32 %3 to i64
  %8 = getelementptr inbounds [4 x i32], ptr %6, i64 0, i64 %7
  %9 = load i32, ptr %8, align 4, !tbaa !49
  %10 = getelementptr inbounds nuw i8, ptr %0, i64 64
  %11 = getelementptr inbounds [4 x i32], ptr %10, i64 0, i64 %7
  %12 = load i32, ptr %11, align 4, !tbaa !49
  %13 = icmp sgt i32 %9, 0
  br i1 %13, label %.preheader.lr.ph, label %._crit_edge

.preheader.lr.ph:                                 ; preds = %5
  %14 = getelementptr inbounds nuw i8, ptr %0, i64 52
  %15 = load i32, ptr %14, align 4, !tbaa !79
  %16 = icmp sgt i32 %12, 0
  %17 = getelementptr inbounds nuw i8, ptr %0, i64 104
  %notmask.i = shl nsw i32 -1, %15
  %18 = xor i32 %notmask.i, -1
  %19 = tail call i64 @llvm.lrint.i64.f32(float 0x7FF8000000000000)
  %20 = trunc i64 %19 to i32
  %21 = and i32 %notmask.i, %20
  %.not.i = icmp eq i32 %21, 0
  %isnotneg.inv.i = icmp slt i32 %20, 0
  %22 = select i1 %isnotneg.inv.i, i32 0, i32 %18
  %.0.i = select i1 %.not.i, i32 %20, i32 %22
  %23 = trunc i32 %.0.i to i16
  br i1 %16, label %.preheader.lr.ph.split.us, label %._crit_edge

.preheader.lr.ph.split.us:                        ; preds = %.preheader.lr.ph
  %24 = icmp sgt i32 %4, 0
  %25 = zext nneg i32 %12 to i64
  br i1 %24, label %.preheader.us.us.preheader, label %.preheader.us

.preheader.us.us.preheader:                       ; preds = %.preheader.lr.ph.split.us
  %wide.trip.count69 = zext nneg i32 %9 to i64
  %wide.trip.count59 = zext nneg i32 %4 to i64
  br label %.preheader.us.us

.preheader.us.us:                                 ; preds = %.preheader.us.us.preheader, %._crit_edge46.split.us.us.us
  %indvars.iv66 = phi i64 [ 0, %.preheader.us.us.preheader ], [ %indvars.iv.next67, %._crit_edge46.split.us.us.us ]
  %26 = trunc i64 %indvars.iv66 to i32
  %27 = mul i32 %2, %26
  %28 = sdiv i32 %27, 2
  %29 = sext i32 %28 to i64
  %30 = getelementptr inbounds i16, ptr %1, i64 %29
  %31 = mul nuw nsw i64 %indvars.iv66, %25
  br label %.lr.ph.us.us.us

.lr.ph.us.us.us:                                  ; preds = %._crit_edge.us.us.us, %.preheader.us.us
  %indvars.iv61 = phi i64 [ %indvars.iv.next62, %._crit_edge.us.us.us ], [ 0, %.preheader.us.us ]
  %32 = add nuw nsw i64 %indvars.iv61, %31
  br label %33

33:                                               ; preds = %33, %.lr.ph.us.us.us
  %indvars.iv56 = phi i64 [ %indvars.iv.next57, %33 ], [ 0, %.lr.ph.us.us.us ]
  %.03741.us.us.us = phi float [ %43, %33 ], [ 0.000000e+00, %.lr.ph.us.us.us ]
  %.03840.us.us.us = phi float [ %44, %33 ], [ 0.000000e+00, %.lr.ph.us.us.us ]
  %34 = getelementptr inbounds nuw [32 x %struct.SliceContext], ptr %17, i64 0, i64 %indvars.iv56
  %35 = getelementptr inbounds nuw i8, ptr %34, i64 136
  %36 = load ptr, ptr %35, align 8, !tbaa !88
  %37 = getelementptr inbounds nuw float, ptr %36, i64 %32
  %38 = load float, ptr %37, align 4, !tbaa !120
  %39 = getelementptr inbounds nuw i8, ptr %34, i64 144
  %40 = load ptr, ptr %39, align 8, !tbaa !93
  %41 = getelementptr inbounds nuw float, ptr %40, i64 %32
  %42 = load float, ptr %41, align 4, !tbaa !120
  %43 = fadd nsz float %.03741.us.us.us, %38
  %44 = fadd nsz float %.03840.us.us.us, %42
  %indvars.iv.next57 = add nuw nsw i64 %indvars.iv56, 1
  %exitcond60.not = icmp eq i64 %indvars.iv.next57, %wide.trip.count59
  br i1 %exitcond60.not, label %._crit_edge.us.us.us, label %33, !llvm.loop !189

._crit_edge.us.us.us:                             ; preds = %33
  %45 = fdiv nsz float %43, %44
  %46 = tail call i64 @llvm.lrint.i64.f32(float %45)
  %47 = trunc i64 %46 to i32
  %48 = and i32 %notmask.i, %47
  %.not.i.us.us.us = icmp eq i32 %48, 0
  %isnotneg.inv.i.us.us.us = icmp slt i32 %47, 0
  %49 = select i1 %isnotneg.inv.i.us.us.us, i32 0, i32 %18
  %.0.i.us.us.us = select i1 %.not.i.us.us.us, i32 %47, i32 %49
  %50 = trunc i32 %.0.i.us.us.us to i16
  %51 = getelementptr inbounds nuw i16, ptr %30, i64 %indvars.iv61
  store i16 %50, ptr %51, align 2, !tbaa !190
  %indvars.iv.next62 = add nuw nsw i64 %indvars.iv61, 1
  %exitcond65.not = icmp eq i64 %indvars.iv.next62, %25
  br i1 %exitcond65.not, label %._crit_edge46.split.us.us.us, label %.lr.ph.us.us.us, !llvm.loop !192

._crit_edge46.split.us.us.us:                     ; preds = %._crit_edge.us.us.us
  %indvars.iv.next67 = add nuw nsw i64 %indvars.iv66, 1
  %exitcond70.not = icmp eq i64 %indvars.iv.next67, %wide.trip.count69
  br i1 %exitcond70.not, label %._crit_edge, label %.preheader.us.us, !llvm.loop !193

.preheader.us:                                    ; preds = %.preheader.lr.ph.split.us, %._crit_edge46.split.us49
  %.047.us = phi i32 [ %58, %._crit_edge46.split.us49 ], [ 0, %.preheader.lr.ph.split.us ]
  %52 = mul nsw i32 %.047.us, %2
  %53 = sdiv i32 %52, 2
  %54 = sext i32 %53 to i64
  %55 = getelementptr inbounds i16, ptr %1, i64 %54
  br label %56

56:                                               ; preds = %.preheader.us, %56
  %indvars.iv = phi i64 [ 0, %.preheader.us ], [ %indvars.iv.next, %56 ]
  %57 = getelementptr inbounds nuw i16, ptr %55, i64 %indvars.iv
  store i16 %23, ptr %57, align 2, !tbaa !190
  %indvars.iv.next = add nuw nsw i64 %indvars.iv, 1
  %exitcond.not = icmp eq i64 %indvars.iv.next, %25
  br i1 %exitcond.not, label %._crit_edge46.split.us49, label %56, !llvm.loop !192

._crit_edge46.split.us49:                         ; preds = %56
  %58 = add nuw nsw i32 %.047.us, 1
  %exitcond55.not = icmp eq i32 %58, %9
  br i1 %exitcond55.not, label %._crit_edge, label %.preheader.us, !llvm.loop !193

._crit_edge:                                      ; preds = %._crit_edge46.split.us49, %._crit_edge46.split.us.us.us, %.preheader.lr.ph, %5
  ret void
}